; Function Attrs: null_pointer_is_valid sspstrong uwtable
define internal noundef zeroext i1 @dissect_njack_heur(ptr noundef %0, ptr noundef readonly captures(none) %1, ptr noundef %2, ptr readnone captures(none) %3) #0 {
  %5 = tail call i32 @tvb_captured_length(ptr noundef %0)
  %6 = icmp ult i32 %5, 6
  br i1 %6, label %test_njack.exit.thread, label %test_njack.exit

test_njack.exit:                                  ; preds = %4
  %7 = tail call i32 @tvb_strncaseeql(ptr noundef %0, i32 noundef 0, ptr noundef nonnull @.str.116, i64 noundef 5)
  %.not.i = icmp eq i32 %7, 0
  br i1 %.not.i, label %8, label %test_njack.exit.thread

8:                                                ; preds = %test_njack.exit
  %9 = tail call fastcc i32 @dissect_njack(ptr noundef %0, ptr noundef %1, ptr noundef %2)
  br label %test_njack.exit.thread

test_njack.exit.thread:                           ; preds = %4, %test_njack.exit, %8
  %.0.i7 = phi i1 [ false, %test_njack.exit ], [ true, %8 ], [ false, %4 ]
  ret i1 %.0.i7
}